target datalayout = "e-m:e-p270:32:32-p271:32:32-p272:64:64-i64:64-i128:128-f80:128-n8:16:32:64-S128"
target triple = "x86_64-pc-linux-gnu"

; Function Attrs: nounwind uwtable
define i32 @evtag_unmarshal_fixed(ptr noundef %0, i32 noundef %1, ptr noundef %2, i64 noundef %3) #0 {
  %5 = alloca i32, align 4
  %6 = alloca ptr, align 8
  %7 = alloca i32, align 4
  %8 = alloca ptr, align 8
  %9 = alloca i64, align 8
  %10 = alloca i32, align 4
  %11 = alloca i32, align 4
  %12 = alloca i32, align 4
  store ptr %0, ptr %6, align 8
  store i32 %1, ptr %7, align 4
  store ptr %2, ptr %8, align 8
  store i64 %3, ptr %9, align 8
  call void @llvm.lifetime.start.p0(i64 4, ptr %10) #6
  call void @llvm.lifetime.start.p0(i64 4, ptr %11) #6
  %13 = load ptr, ptr %6, align 8
  %14 = call i32 @evtag_unmarshal_header(ptr noundef %13, ptr noundef %10)
  store i32 %14, ptr %11, align 4
  %15 = icmp slt i32 %14, 0
  br i1 %15, label %20, label %16

16:                                               ; preds = %4
  %17 = load i32, ptr %10, align 4
  %18 = load i32, ptr %7, align 4
  %19 = icmp ne i32 %17, %18
  br i1 %19, label %20, label %21

20:                                               ; preds = %16, %4
  store i32 -1, ptr %5, align 4
  store i32 1, ptr %12, align 4
  br label %32

21:                                               ; preds = %16
  %22 = load i32, ptr %11, align 4
  %23 = sext i32 %22 to i64
  %24 = load i64, ptr %9, align 8
  %25 = icmp ne i64 %23, %24
  br i1 %25, label %26, label %27

26:                                               ; preds = %21
  store i32 -1, ptr %5, align 4
  store i32 1, ptr %12, align 4
  br label %32

27:                                               ; preds = %21
  %28 = load ptr, ptr %6, align 8
  %29 = load ptr, ptr %8, align 8
  %30 = load i64, ptr %9, align 8
  %31 = call i32 @evbuffer_remove(ptr noundef %28, ptr noundef %29, i64 noundef %30)
  store i32 0, ptr %5, align 4
  store i32 1, ptr %12, align 4
  br label %32

32:                                               ; preds = %27, %26, %20
  call void @llvm.lifetime.end.p0(i64 4, ptr %11) #6
  call void @llvm.lifetime.end.p0(i64 4, ptr %10) #6
  %33 = load i32, ptr %5, align 4
  ret i32 %33
}