; Function Attrs: nounwind uwtable
define range(i32 -1, 1) i32 @evtag_unmarshal_fixed(ptr noundef %0, i32 noundef %1, ptr noundef %2, i64 noundef %3) local_unnamed_addr #1 {
  %5 = alloca i32, align 4
  call void @llvm.lifetime.start.p0(i64 4, ptr nonnull %5) #7
  %6 = call i32 @evtag_unmarshal_header(ptr noundef %0, ptr noundef nonnull %5)
  %7 = icmp sgt i32 %6, -1
  %8 = load i32, ptr %5, align 4
  %.not = icmp eq i32 %8, %1
  %or.cond = select i1 %7, i1 %.not, i1 false
  %9 = zext nneg i32 %6 to i64
  %.not9 = icmp eq i64 %3, %9
  %or.cond10 = select i1 %or.cond, i1 %.not9, i1 false
  br i1 %or.cond10, label %10, label %12

10:                                               ; preds = %4
  %11 = call i32 @evbuffer_remove(ptr noundef %0, ptr noundef %2, i64 noundef %3) #7
  br label %12

12:                                               ; preds = %4, %10
  %.0 = phi i32 [ 0, %10 ], [ -1, %4 ]
  call void @llvm.lifetime.end.p0(i64 4, ptr nonnull %5) #7
  ret i32 %.0
}